; Function Attrs: nounwind uwtable
define void @Acec_ParseSignatureTest() local_unnamed_addr #0 {
  %1 = tail call ptr @Acec_ParseSignature(ptr noundef nonnull @.str.9)
  tail call void @Acec_PrintSignature(ptr noundef %1)
  %2 = load i32, ptr %1, align 8
  %3 = icmp sgt i32 %2, 0
  %4 = getelementptr inbounds nuw i8, ptr %1, i64 8
  %5 = load ptr, ptr %4, align 8
  br i1 %3, label %.lr.ph.i.i, label %._crit_edge.i.i

.lr.ph.i.i:                                       ; preds = %0
  %6 = zext nneg i32 %2 to i64
  br label %7

7:                                                ; preds = %11, %.lr.ph.i.i
  %indvars.iv.i.i = phi i64 [ 0, %.lr.ph.i.i ], [ %indvars.iv.next.i.i, %11 ]
  %8 = getelementptr inbounds nuw %struct.Vec_Int_t_, ptr %5, i64 %indvars.iv.i.i, i32 2
  %9 = load ptr, ptr %8, align 8
  %.not15.i.i = icmp eq ptr %9, null
  br i1 %.not15.i.i, label %11, label %10

10:                                               ; preds = %7
  tail call void @free(ptr noundef nonnull %9) #27
  store ptr null, ptr %8, align 8
  br label %11

11:                                               ; preds = %10, %7
  %indvars.iv.next.i.i = add nuw nsw i64 %indvars.iv.i.i, 1
  %exitcond.not = icmp eq i64 %indvars.iv.next.i.i, %6
  br i1 %exitcond.not, label %._crit_edge.i.i.thread, label %7, !llvm.loop !16

._crit_edge.i.i:                                  ; preds = %0
  %.not.i.i = icmp eq ptr %5, null
  br i1 %.not.i.i, label %Vec_WecFree.exit, label %._crit_edge.i.i.thread

._crit_edge.i.i.thread:                           ; preds = %11, %._crit_edge.i.i
  tail call void @free(ptr noundef nonnull %5) #27
  br label %Vec_WecFree.exit

Vec_WecFree.exit:                                 ; preds = %._crit_edge.i.i, %._crit_edge.i.i.thread
  tail call void @free(ptr noundef nonnull %1) #27
  ret void
}